; Function Attrs: mustprogress nofree norecurse nosync nounwind willreturn memory(read, inaccessiblemem: none) uwtable
define dso_local noundef zeroext i1 @_ZNK4llvm12X86InstrInfo18hasLiveCondCodeDefERNS_12MachineInstrE(ptr noundef nonnull readnone align 8 captures(none) dereferenceable(416) %0, ptr noundef nonnull readonly align 8 captures(none) dereferenceable(70) %1) local_unnamed_addr #8 align 2 {
  %3 = getelementptr inbounds nuw i8, ptr %1, i64 32
  %4 = load ptr, ptr %3, align 8
  %5 = getelementptr inbounds nuw i8, ptr %1, i64 40
  %6 = load i24, ptr %5, align 8
  %7 = zext i24 %6 to i64
  %8 = getelementptr inbounds nuw %"class.llvm::MachineOperand", ptr %4, i64 %7
  %.not17.not = icmp eq i24 %6, 0
  br i1 %.not17.not, label %._crit_edge, label %.lr.ph

.lr.ph:                                           ; preds = %2, %.critedge
  %.01218 = phi ptr [ %17, %.critedge ], [ %4, %2 ]
  %9 = load i32, ptr %.01218, align 8
  %10 = and i32 %9, 16777471
  %or.cond = icmp eq i32 %10, 16777216
  br i1 %or.cond, label %11, label %.critedge

11:                                               ; preds = %.lr.ph
  %12 = getelementptr inbounds nuw i8, ptr %.01218, i64 4
  %13 = load i32, ptr %12, align 4
  %14 = icmp ne i32 %13, 28
  %15 = and i32 %9, 83886080
  %16 = icmp eq i32 %15, 83886080
  %or.cond16 = or i1 %16, %14
  br i1 %or.cond16, label %.critedge, label %._crit_edge

.critedge:                                        ; preds = %.lr.ph, %11
  %17 = getelementptr inbounds nuw i8, ptr %.01218, i64 32
  %.not.not = icmp eq ptr %17, %8
  br i1 %.not.not, label %._crit_edge, label %.lr.ph

._crit_edge:                                      ; preds = %.critedge, %11, %2
  %.not.lcssa = phi i1 [ false, %2 ], [ true, %11 ], [ false, %.critedge ]
  ret i1 %.not.lcssa
}